(lp0
(dp1
S'url'
p2
Vhttp://en.wikipedia.org/wiki/Bill_Gates
p3
sS'desp'
p4
VWilliam Henry "Bill" Gates III (born October 28, 1955) is an American business magnate, philanthropist, investor, computer programmer, and inventor. In 1975, Gates co ...
p5
sS'title'
p6
VBill Gates - Wikipedia, the free encyclopedia
p7
sa(dp8
g2
Vhttp://www.forbes.com/profile/bill-gates/
p9
sg4
VIt's been 40 years since Bill Gates cofounded Microsoft with Paul Allen. At the time, Gates' goal of getting a computer on every person's desk seemed audacious.
p10
sg6
VBill Gates - Forbes
p11
sa(dp12
g2
Vhttp://en.wikipedia.org/wiki/Gates
p13
sg4
VGates may refer to: Contents 1 People 2 Places 3 Art and entertainment 4 See also People Gates (surname) Gates Brown, American baseball player Gates McFadden ...
p14
sg6
VGates - Wikipedia, the free encyclopedia
p15
sa.