(lp0
Vhttp://www.gates.com/
p1
aVhttp://www.gatecrafters.com/design_your_gates.aspx
p2
aVhttp://www.amazon.com/s?ie=UTF8&page=1&rh=i%3Aaps%2Ck%3Agates
p3
aVhttp://en.wikipedia.org/wiki/Gates
p4
aVhttp://www.gatesbbq.com/
p5
aVhttps://www.facebook.com/BillGates
p6
aVhttp://en.wikipedia.org/wiki/Bill_Gates
p7
aVhttp://www.gatesfoundation.org/
p8
aVhttp://www.forbes.com/profile/bill-gates/
p9
aVhttp://www.amazon.com/b?ie=UTF8&node=166868011
p10
aVhttp://www.gates.com/catalogs-and-resources/catalogs
p11
aVhttp://www.biography.com/people/bill-gates-9307520#!
p12
aVhttp://www.townofgates.org/
p13
aVhttp://www.gatesnotes.com/
p14
aVhttps://www.facebook.com/gatesnj
p15
aVhttp://www.gatesinc.com/
p16
aVhttp://gatesandgates.com/
p17
aVhttp://espn.go.com/nfl/player/_/id/5362/antonio-gates
p18
aVhttp://www.imdb.com/title/tt2200255/
p19
aVhttp://dictionary.reference.com/browse/gate
p20
aVhttp://dictionary.reference.com/browse/gates
p21
aVhttp://navigates.gates.com/
p22
aVhttp://www.nfl.com/player/antoniogates/2505299/profile
p23
aVhttp://www.homedepot.com/b/Lumber-Composites-Fencing-Metal-Fencing-Metal-Fence-Gates/N-5yc1vZc3l5
p24
aVhttp://www.lowes.com/Hardware/Gate-Hardware/_/N-1z11oiv/pl
p25
aVhttp://www.imdb.com/title/tt1599357/
p26
aVhttp://www.gatescounty.govoffice2.com/
p27
aVhttp://www.tv.com/shows/the-gates/
p28
aVhttp://gates.bandcamp.com/
p29
aVhttp://www.toysrus.com/products/baby-gates.jsp
p30
aVhttp://www.homedepot.com/b/Lumber-Composites-Fencing-Wood-Fencing-Wood-Fence-Gates/N-5yc1vZc3m2
p31
aVhttp://www.petco.com/N_22_136/Dog-Gates-and-Doors.aspx
p32
aVhttp://www.costco.com/gates.html
p33
aVhttp://www.overstock.com/Baby/Child-Gates/19292/subcat.html
p34
aVhttp://www.nyc.gov/html/thegates/html/photos_gates.html
p35
aVhttp://www.toysrus.com/products/baby-safety-gates.jsp
p36
aVhttp://inventors.about.com/od/gstartinventors/a/Bill_Gates.htm
p37
aVhttp://www.gatesfoundation.org/jobs
p38
aVhttp://www.hayneedle.com/outdoor/garden-fences-and-gates_list_181412
p39
aVhttp://www.garden.com/lawn-care/lawn-care-supplies/fencing-gates-and-edging/2275/
p40
aVhttp://www.gateschevyworld.com/
p41
aVhttp://hooverfence.com/gates.htm
p42
aVhttp://www.gatesnj.com/
p43
aVhttp://www.thefreedictionary.com/gate
p44
aVhttp://www.gatecrafters.com/default.aspx
p45
aVhttp://www.gatescarbondrive.com/
p46
aVhttp://www.longfence.com/residential/fence/gates
p47
aVhttp://www.kencove.com/fence/Gates_products.php
p48
aVhttp://www.gateshousings.com/
p49
aVhttp://ww2.gates.com/europe/index.cfm
p50
aVhttps://www.gmsp.org/
p51
aVhttp://www.amazinggates.com/
p52
aVhttp://www.gateschilipost.com/
p53
aVhttp://www.gatesconcreteforms.com/index.html
p54
aVhttp://www.blockadergates.com/
p55
aVhttp://www.merriam-webster.com/dictionary/gate
p56
aVhttps://t4s.gates.com/
p57
aVhttp://www.ebay.com/sch/i.html?_nkw=fence+gates
p58
aVhttp://www.firstimpressionsecuritydoors.com/product-category/gates/
p59
aVhttp://www.gatesgmcnissan.com/home.html
p60
aVhttp://ww2.gates.com/first/
p61
aVhttp://www.gatescollision.com/
p62
aVhttp://www.gatesiron.com/
p63
aVhttp://www.alibaba.com/showroom/metal-gates.html
p64
aVhttp://www.gatedepot.com/category/steel-driveway-gates/
p65
aVhttp://gatesautocat.com/
p66
aVhttp://www.gate.com/
p67
aVhttp://gates.abschools.org/
p68
aVhttp://www.gateslibrary.org/
p69
aVhttp://dev.bukkit.org/bukkit-plugins/gates1/
p70
aVhttp://www.gatedepot.com/
p71
aVhttp://www.ifenceusa.com/gates.php
p72
aVhttp://www.ultrafence.com/gates.html
p73
aVhttp://www.fence-depot.com/fence/driveway-gates/
p74
aVhttp://www.trulia.com/NY/Gates/
p75
aVhttp://fence-material.com/fencegates.html
p76
aVhttp://www.lowes.com/Outdoors/Fencing/Driveway-Gates-Gate-Openers/_/N-1z0wg5v/pl
p77
aVhttp://www.gateslodge.com/
p78
aVhttp://www.ebay.com/sch/i.html?_nkw=driveway+gates
p79
aVhttp://www.gatesfurniture.com/
p80
aVhttp://coserver.gates.k12.nc.us/
p81
aVhttp://gatesgmcnissan.com/
p82
aVhttp://www.gatesmfg.com/
p83
aVhttp://www.gatesbbq.com/GeneralInformation/Store.aspx
p84
aVhttp://www.walmart.com/browse/health-safety/baby-gates/5427_132943_132981/
p85
aVhttp://www.gmsp.org/publicweb/Scholarships.aspx
p86
aVhttp://customgates.org/
p87
aVhttp://www.pet-super-store.com/pet-supplies/pet-gates/
p88
aVhttp://gatesnfences.com/
p89
aVhttp://www.gatesmfg.net/
p90
aVhttp://wiki.sk89q.com/wiki/CraftBook/Gates
p91
aVhttp://mightymulegates.com/
p92
aVhttp://www.ameristarfence.com/residential-ornamental-wrought-iron-steel-driveway-entrance-gates-estate
p93
aVhttp://www.houzz.com/wooden-gate
p94
aVhttp://gateschili.org/
p95
aVhttp://www.customgateonline.com/#!
p96
aVhttp://www.forbes.com/profile/melinda-gates/
p97
aVhttp://partview.gates.com/catalog3/d/gates.pt/
p98
aVhttp://www.cbsnews.com/news/robert-gates-duty/
p99
aVhttp://thegates.wikia.com/wiki/The_Gates_Wiki
p100
aVhttp://partview.gates.com/catalog3/d/gates.pt/
p101
aVhttp://www.cbsnews.com/news/robert-gates-duty/
p102
aVhttp://thegates.wikia.com/wiki/The_Gates_Wiki
p103
aVhttp://www.amazinggates.com/Garden-Gates-s/42.htm
p104
aVhttp://www.kirsch-korff.com/Pages/gates.htm
p105
aVhttp://www.gatesracing.com/
p106
aVhttp://www.petstreetmall.com/pet-gates.aspx
p107
aVhttp://fencing-farm-ranch.com/gates1.html
p108
aVhttp://seattlegates.com/
p109
aVhttp://minecraft.gamepedia.com/Fence_Gate
p110
aVhttp://www.trulia.com/NC/Gates/
p111
aVhttps://gates.ces.ncsu.edu/
p112
aVhttp://www.aegates.com/
p113
aVhttp://www.thefencingpro.com/gates/gates.htm
p114
aVhttp://www.houzz.com/metal-gate
p115
aVhttp://www.mapquest.com/maps?city=Gates&state=NY
p116
aVhttps://www.houseofnames.com/gates-family-crest
p117
aVhttp://www.citygatesusa.com/
p118
aVhttp://ncgenweb.us/nc/gates/
p119
aVhttps://transfer.gates.com/
p120
aVhttp://dog-gates.com/
p121
aVhttp://www.kidco.com/products-page/safety-gates/
p122
aVhttp://www.nygates.com/
p123
aVhttp://gates2u.com/
p124
aVhttp://myautomaticgates.com/
p125
aVhttp://www.ultrafence.com/drivegates.html
p126
aVhttp://whatis.techtarget.com/definition/logic-gate-AND-OR-XOR-NOT-NAND-NOR-and-XNOR
p127
aVhttp://www.gateoperator.net/
p128
aVhttp://www.customgateonline.com/
p129
aVhttp://rocwiki.org/Gates
p130
aVhttp://www.metal-archives.com/bands/At_the_Gates/43
p131
aVhttp://abc.go.com/shows/the-gates
p132
aVhttp://www.classic-equine.com/posts/entrance-gates/
p133
aVhttp://www.overstock.com/Pet-Supplies/Pet-Gates-Doors/325/dept.html
p134
aVhttp://www.ametco.com/
p135
aVhttp://www.gatessecurity.com/
p136
aVhttp://www.rotoworld.com/player/nfl/611/antonio-gates
p137
aVhttp://www.virginiarailingandgates.com/gates.htm
p138
aVhttp://www.nyc.gov/html/thegates/home.html
p139
aVhttp://customfenceandgates.com/
p140
aVhttps://en.m.wikipedia.org/wiki/Daryl_Gates
p141
aVhttp://theastergates.com/home.html
p142
aVhttp://www.gatesnfences.com/Automatic_Driveway_gates_1.html
p143
aVhttp://gatesfd.org/
p144
aVhttp://www.gatesmectrol.com/
p145
aVhttp://www.gatesdtsb.com/
p146
aVhttp://www.gatespowerpro.com/Comergent/en/US/adirect/gates
p147
aVhttp://gateslosangeles.com/
p148
aVhttp://www.ancestry.com/name-origin?surname=gates
p149
aVhttp://www.hooverfence.com/gatekits/barrier-gates/
p150
aVhttp://gatesnissan.com/
p151
aVhttp://gatesofrochester.com/
p152
aVhttp://www.gatesofgranger.com/
p153
aVhttp://www.gateslumber.com/
p154
aVhttp://www.gatepetro.com/
p155
aVhttp://www.electric-gates.com/
p156
aVhttp://www.wrightfarmgates.com/
p157
aVhttp://careers.gatesfoundation.org/
p158
aVhttp://www.dallasgates.com/
p159
aVhttp://www.realtor.com/realestateandhomes-search/Gates_NC
p160
aVhttp://www.realtor.com/realestateandhomes-search/Gates_NY
p161
aVhttp://www.bunnings.com.au/our-range/building-hardware/fencing/gates
p162
aVhttp://english.fas.harvard.edu/faculty/gates/
p163
aVhttp://gateswasher.com/
p164
aVhttp://affordablefenceandgates.com/
p165
aVhttp://www.babygates.com/
p166
aVhttp://www.pbs.org/wnet/finding-your-roots/
p167
aVhttp://naruto.wikia.com/wiki/Eight_Gates
p168
aVhttp://www.gatesgmcnorthwindham.com/
p169
aVhttp://www.homefinder.com/NY/Gates/
p170
aVhttp://www.riverpub.com/products/gmrt/index.html
p171
aVhttp://pacificgateworks.com/
p172
aVhttp://cs.stanford.edu/info/gates
p173
aVhttp://antoniogates.com/
p174
aVhttp://sunsetgates.com/
p175
aVhttp://www.bairdgate.com/products/farm_gate.shtml
p176
aVhttp://www.gatesonlinestore.com/
p177
aVhttp://www.gatessoccer.org/
p178
aVhttp://gatessales.com/
p179
aVhttp://gatescustommilling.com/
p180
aVhttps://www.washingtonpost.com/world/national-security/robert-gates-former-defense-secretary-offers-harsh-critique-of-obamas-leadership-in-duty/2014/01/07/6a6915b2-77cb-11e3-b1c5-739e63e9c9a7_story.html
p181
aVhttp://www.wickes.co.uk/Products/Gardens/Gates+Metal-Railings/c/1000690
p182
aVhttps://www.gatesgatesgates.co.uk/
p183
aVhttps://play.google.com/store/apps/details?id=com.cento.gates.main
p184
aVhttp://gates-automotive.com/
p185
aVhttp://www.northerntool.com/shop/tools/category_farm-acreage+fences-gates
p186
aVhttps://www.linkedin.com/in/williamhgates
p187
aVhttp://gatescapital.com/
p188
aVhttp://names.whitepages.com/last/Gates
p189
aVhttp://www.gateschevyworld.com/VehicleSearchResults?search=preowned
p190
aVhttp://www.hobbyfarms.com/farm-equipment-and-tools/drive-through-gates.aspx
p191
aVhttp://www.gatesbydesign.net/
p192
aVhttp://www.sculpturalgates.com/
p193
aVhttp://www.comedy.co.uk/guide/tv/gates/
p194
aVhttp://www.gate-it.com/
p195
aVhttp://watermanusa.com/
p196
aVhttp://www.homefinder.com/NY/Gates/rentals/
p197
aVhttp://www.gatesusedcars.com/
p198
aVhttp://ontariogates.com/
p199
aVhttp://www.gatesfour.com/
p200
aVhttp://www.gobobpipe.com/heavydutygates.html
p201
aVhttp://www.armourgates.com/
p202
aVhttp://www.affordablegate.com/
p203
aVhttp://www.youtube.com/watch?v=zgSqbwIExGQ
p204
aVhttp://www.californiagate.com/
p205
aVhttp://www.alekogates.com/
p206
aVhttp://thegatetohome.com/
p207
aVhttp://txgates.com/
p208
aVhttp://gatestenniscenter.info/
p209
aVhttp://www.gatestoyota.com/
p210
aVhttp://www.gablesandgates.com/
p211
aVhttp://www.impatientoptimists.org/
p212
aVhttp://www.thegatessm.com/#!
p213
aVhttp://gatesritual.bandcamp.com/
p214
aVhttp://www.dignitymemorial.com/gates-kingsley-gates-moeller-murphy/en-us/index.page
p215
aVhttp://www.gateshyundai.com/
p216
aVhttp://www.gatesautomotive.com/
p217
aVhttp://gardenwoodgates.com/
p218
aVhttp://www.corralpanels.com/gates.html
p219
aVhttp://www.gips.org/gates
p220
aVhttp://www.gateshealthcareassociates.com/
p221
aVhttp://www.mightymule.com/
p222
aVhttp://rickeygates.com/
p223
aVhttp://www.dignitymemorial.com/gates-kingsley-gates-smith-salsbury/en-us/index.page
p224
aVhttp://www.gatesnissan.net/
p225
aVhttp://www.rand.org/about/people/g/gates_susan_m.html
p226
aVhttp://www.barrier-gate.com/
p227
aVhttp://www.powderriver.com/Products/GatesPanelsAndCattleGuards.aspx
p228
aVhttp://www.gatescounty.govoffice2.com/index.asp?Type=B_BASIC&SEC=%7B92C40BAB-FD61-489F-B976-A8C4B4F1BDBC%7D
p229
aVhttp://www.jewishvirtuallibrary.org/jsource/Society_&_Culture/geo/gates.html
p230
aVhttp://electronics.howstuffworks.com/digital-electronics.htm
p231
aVhttp://www.kidco.com/
p232
aVhttps://pam.wikipedia.org/wiki/Bill_Gates
p233
aVhttp://woodengates.net/
p234
aVhttp://www.wickes.co.uk/Products/Gardens/Gates+Metal-Railings/Metal-Gates/c/1000738
p235
aVhttp://www.indeed.com/l-Gates,-NY-jobs.html
p236
aVhttp://www.encyclopedia.com/topic/Bill_Gates.aspx
p237
aVhttp://automaticgatesplus.com/
p238
aVhttp://www.gates.co.za/
p239
aVhttp://www.gates.co.uk/contact-us/gates-of-stevenage/
p240
aVhttp://www.buildeazy.com/fences.html
p241
aVhttp://www.gatesautocenter.com/index.php
p242
aVhttp://www.ablegates.co.za/
p243
aVhttp://www.zillow.com/gates-nc/
p244
aVhttp://www.gocomics.com/agent-gates
p245
aVhttp://www.aa.com/travelInformation/gatesTimesAccess.do
p246
aVhttp://www.electronics-tutorials.ws/logic/logic_1.html
p247
aVhttp://www.gatesunitta.com/
p248
aVhttp://gates.com.eg/
p249
aVhttp://gates.merchnow.com/
p250
aVhttp://gates.merchnow.com/
p251
aVhttp://www.frontierpitts.com/products/gates/hinged-gates/
p252
aVhttp://coserver.gates.k12.nc.us/Domain/326
p253
aVhttp://www.gatesaustralia.com.au/
p254
aVhttp://www.matrixgames.com/products/299/details/Gates.of.Troy
p255
aVhttp://cardinalgates.com/
p256
aVhttp://www.fenceall.com/gates/
p257
aVhttp://grandentrance.com/
p258
aVhttp://alamedagates.com/
p259
aVhttp://www.college-financial-aid-advice.com/gates-millenium-scholarship.html
p260
aVhttp://www.billygatesinc.com/
p261
aVhttp://www.mtv.com/artists/at-the-gates/
p262
aVhttp://www.jacksons-fencing.co.uk/gates.aspx
p263
aVhttp://www.usnews.com/topics/people/robert_gates
p264
aVhttp://www.instructables.com/id/Building-a-fence-gate/
p265
aVhttp://www.gatesmillsvillage.com/
p266
aVhttp://www.klgates.com/
p267
aVhttp://www.gatesfamilyfoundation.org/
p268
aVhttp://www.gatesbrooklyn.com/
p269
aVhttp://www.window-gate.com/
p270
aVhttp://www.thomasnet.com/products/gates-33470279-1.html
p271
aVhttp://www.vintagedoors.com/garden_gate.php
p272
aVhttp://www.cannockgates.co.uk/
p273
aVhttp://gatesunitta.com/en/gates-corporation
p274
aVhttp://gatesantiques.com/
p275
aVhttp://www.cbssports.com/nfl/players/playerpage/396811/antonio-gates
p276
aVhttp://www.gates-sandiego.com/
p277
aVhttp://www.arusticgarden.com/wrirga.html
p278
aVhttp://www.trailswestgatecompany.com/
p279
aVhttp://www.ebay.com.au/bhp/driveway-gates
p280
aVhttp://www.vindecipher.com/gates2/
p281
aVhttp://www.chem.uoa.gr/applets/AppletGates/Appl_Gates2.html
p282
aVhttp://www.gateshotelkeywest.com/
p283
aVhttp://www-cs.stanford.edu/
p284
aVhttp://commons.wikimedia.org/wiki/Bill_Gates
p285
aVhttp://www.heavenlygates.com/
p286
aVhttp://cargoholdinc.com/
p287
aVhttp://www.indoordoggates.com/
p288
aVhttp://info.gates.com/vbelt
p289
aVhttp://www.gatesnotes.com/Books
p290
aVhttp://gateshistory.org/
p291
aVhttp://www.texasgates.com/
p292
aVhttp://www.joshuagates.com/
p293
aVhttp://www.greatgates.com/
p294
aVhttp://www.gateshousings.com/ex1r/
p295
aVhttp://www.gates-parish.co.uk/
p296
aVhttp://www.artfactory.com/
p297
aVhttp://www.newcustomiron.com/driveway-gates
p298
aVhttp://www.albeebaby.com/gatesrails1.html
p299
aVhttp://www.youtube.com/watch?v=MSyAZO2v8kY
p300
aVhttp://gatescenterbingo.com/
p301
aVhttp://www.gates.co.uk/
p302
aVhttp://www.gatesandburnsrealestate.com/
p303
aVhttp://www.gatesrealestategroup.com/
p304
aVhttp://www.gatesandrailings.net/
p305
aVhttp://jackgatesmusic.com/
p306
aVhttp://www.klgates.com/home.aspx
p307
aVhttp://www.woodengatecompany.co.uk/uk/
p308
aVhttp://nymag.com/listings/bar/the-gates/
p309
aVhttp://cattle-gates.com/
p310
aVhttp://bcautogates.com/
p311
aVhttp://gatesofvienna.blogspot.com/
p312
aVhttp://www.gatesinstitute.org/
p313
aVhttp://www.tvguide.com/tvshows/gates/304102
p314
aVhttp://www.jegs.com/i/Gates/465/27093/10002/-1
p315
aVhttp://gateshudson.com/
p316
aVhttp://www.automaticgates.com.au/
p317
aVhttp://www.gatesandboards.com/
p318
aVhttp://elysiumgates.com/
p319
aVhttp://www.kaleidahealth.org/gvi/
p320
aVhttp://atthegates.se/
p321
aVhttp://www.bunnings.com.au/our-range/building-hardware/fencing
p322
aVhttps://en.wikiquote.org/wiki/Bill_Gates
p323
aVhttp://gatescapital.net/
p324
aVhttp://gates2hollywood.com/
p325
aVhttp://www.kencove.com/fence/Wire+Gates_product.php
p326
aVhttp://www.wikihow.com/Make-a-Fence-Gate
p327
aVhttp://www.homebase.co.uk/en/homebaseuk/garden/fencing-and-landscaping/garden-gates
p328
aVhttp://longman-gates.co.uk/
p329
aVhttp://www.straightgatefence.com/Straight_Gate_Fence_Co./Welcome.html
p330
aVhttp://www.npr.org/news/graphics/2008/june/bill_gates/gates_timeline_04.html
p331
aVhttp://www.sandiegoirongates.com/
p332
aVhttp://www.gates-online.com/
p333
aVhttp://gates-harris-history.com/
p334
aVhttp://www.linkedin.com/in/harrydgates
p335
aVhttp://eastgates.org/
p336
aVhttp://www.nps.gov/gaar/index.htm
p337
aVhttp://gatesselfstorage.com/
p338
aVhttp://www.gatesandfencesuk.co.uk/
p339
aVhttp://www.electricgatesandbarriers.com/
p340
aVhttp://elainegates.com/
p341
aVhttps://www.budgetgatessydney.com.au/
p342
aVhttp://www.totalgate.com/
p343
aVhttp://www.bedbathandbeyond.com/1/3/summer-gates
p344
aVhttp://www.bibleplaces.com/oldcitygates.htm
p345
aVhttp://www.gatewayfencing.com.au/gates
p346
aVhttp://www.gatesgroupcp.com/
p347
aVhttp://www.gardenstructure.com/gallery/section/wood_fences
p348
aVhttp://www.keziahgates.com/
p349
aVhttp://www.drivewaygates.co.nz/
p350
aVhttp://www.drivewaygates.co.nz/
p351
aVhttp://www.houstongates.com/
p352
aVhttp://www.diamondgatesjrt.com/
p353
aVhttp://racegates.com/
p354
aVhttp://www.citygatesinitiative.org/
p355
aVhttp://www.sculpturalgates.com/gates.html
p356
aVhttp://www.gateslandscape.com/
p357
aVhttp://gatesofkent.com/
p358
aVhttp://www.gateswildlifecontrol.com/
p359
aVhttp://www.balidoorsandgates.com/index.html
p360
aVhttp://purelygates.com/
p361
aVhttp://www.catalogds.com/db/service?domain=gates.pt&command=browse
p362
aVhttp://www.elite-gates.com/
p363
aVhttp://gatesofmemphis.blogspot.com/
p364
aVhttp://quality-gates.com/
p365
aVhttp://gates.doitbest.com/
p366
aVhttp://www.jsdgates.ie/
p367
aVhttp://www.gatesandcompany.com/
p368
aVhttp://quickfacts.census.gov/qfd/states/37/37073.html
p369
aVhttp://www.uesp.net/wiki/Oblivion:Oblivion_Gates
p370
aVhttp://www.thocp.net/biographies/gates_bill.htm
p371
aVhttp://www.musicmaker.org/artists/lee-gates/
p372
aVhttp://www.giacomogates.com/
p373
aVhttp://www.lenoxgates.com/
p374
aVhttp://www.gateswildlifecontrol.com/company/
p375
aVhttp://trewgates.com/
p376
aVhttp://www.pbs.org/wnet/aalives/profiles/index.html
p377
aVhttp://wiki.guildwars.com/wiki/Gates_of_Kryta
p378
aVhttp://www.regencygates.com/
p379
aVhttp://www.rottentomatoes.com/m/enemy_at_the_gates/
p380
aVhttp://www.tommygate.com/
p381
aVhttp://surlygates.bandcamp.com/
p382
aVhttp://www.umces.edu/al/people/egates
p383
aVhttp://southerngates.com/
p384
aVhttp://www.gatespres.org/
p385
aVhttp://www.wildeck.com/vrc-entrance-gates.html
p386
aVhttp://www.newcustomiron.com/
p387
aVhttp://www.gatesauction.com/
p388
aVhttp://www.glenwardgates.com/
p389
aVhttp://www.adgates.net/
p390
aVhttp://www.allmusic.com/artist/david-gates-mn0000179126
p391
aVhttp://www.gatesmillsvillage.com/police
p392
aVhttp://www.math.buffalo.edu/mad/physics/gates_sylvester.html
p393
aVhttp://gmarch.com/gates
p394
aVhttp://www.klgateshub.com/
p395
aVhttp://discountfence.com/
p396
aVhttp://www.kidsafeinc.com/
p397
aVhttp://main-gates.com/
p398
aVhttp://www.countrygates.com.au/
p399
aVhttp://www.argos.co.uk/static/Browse/ID72/36065133/c_1/1%7Ccategory_root%7CHome+and+garden%7C33005908/c_2/2%7C33005908%7CGarden+decoration+and+landscaping%7C33006928/c_3/3%7Ccat_33006928%7CGarden+gates%7C36065133.htm
p400
aVhttp://www.gatesonline.co.nz/drivewaygates.html
p401
aVhttp://www.smartgates.co.nz/
p402
aVhttp://twelvegatesarts.org/
p403
aVhttp://gateseyewear.co.nz/
p404
aVhttp://www.dogfolks.com/
p405
aVhttp://gates.net.nz/
p406
aVhttp://livestockequineequipment.hutchison-inc.com/category/livestock-equine-equipment/
p407
aVhttp://gatesestates.com/
p408
aVhttp://www.gtoinc.com/
p409
aVhttp://www.chainlinkfence.com/galvanizedgate.html
p410
aVhttp://www.fencing4perth.com.au/gates
p411
aVhttp://www.hobsongm.com/
p412
aVhttp://www.fencingandgate.com.au/garden-fences-and-gates.php
p413
aVhttp://www.ninegates.org/
p414
aVhttp://scvincent.com/2015/09/26/gates-2/
p415
aVhttp://www.giacomogates.com/index2.php
p416
aVhttp://www.metalcraftindia.net/
p417
aVhttp://diamondbargates.com/
p418
aVhttp://www.law.washington.edu/GatesScholar/
p419
aVhttp://www.ashleygates.com/
p420
aVhttp://www.gates-hvac.com/
p421
aVhttp://www.starsteel.com/
p422
aVhttp://coasttocoastgates.com/
p423
aVhttp://www.brisbanegates.com.au/
p424
aVhttp://www.gatesgates.co.uk/
p425
aVhttp://www.homeimprovementpages.com.au/photos/gates
p426
aVhttp://www.gatesandfencesuk.co.uk/driveway-gates-120-c.asp
p427
aVhttp://www.windsorgates.com/
p428
aVhttp://www.niuhuskies.com/sports/m-baskbl/mtt/gates_dennis00.html
p429
aVhttp://www.heritagegates.co.nz/
p430
aVhttp://www.ehow.com/how_4897609_build-gate-deck.html
p431
aVhttp://gatespraisemusic.com/
p432
aVhttp://www.entrepreneur.com/topic/bill-gates
p433
aVhttp://theelectricgateco.co.uk/
p434
aVhttp://www.homeimprovementpages.com.au/find/gates
p435
aVhttp://www.bumpgates.com/
p436
aVhttp://worldofgates.co.uk/
p437
aVhttp://www.gatesconsultants.com/
p438
aVhttp://www.brainyquote.com/quotes/authors/b/bill_gates.html
p439
aVhttp://www.adronfence.com/
p440
aVhttp://gatesindia.net/
p441
aVhttp://powergateinternational.com/
p442
aVhttp://en.4story.gameforge.com/?kid=7-00006-69206-1212-01538196&subid=gatesofandaron.com
p443
aVhttp://www.thegatesshopping.co.uk/
p444
aVhttp://www.thomasnet.com/products/slide-gates-33502808-1.html
p445
aVhttp://www.luyiforge.com/
p446
aVhttp://www.cookandgates.net/
p447
aVhttp://dgates.com/
p448
aVhttp://www.driveway-gate.com.au/
p449
aVhttp://www.prodeckuk.co.uk/
p450
aVhttp://www.mtv.com/artists/kevin-gates/
p451
aVhttp://www.garethgates.com/
p452
aVhttp://www.golchurch.org/
p453
aVhttp://www.bankhousegates.com/
p454
aVhttp://www.911tabs.com/tabs/p/pantera/cemetery_gates_tab.htm
p455
aVhttp://jamaicagates.com/
p456
aVhttp://gatescircleliquor.com/
p457
aVhttp://www.atmosenergy.com/about/leaders.html?show=gates_david
p458
aVhttp://www.law.washington.edu/GatesHall/
p459
aVhttp://www.woodworkersuk.co.uk/wooden-gates.htm
p460
aVhttp://www.globalgates.info/
p461
aVhttp://chutegates.com/
p462
aVhttp://superstringtheory.com/people/jgates.html
p463
aVhttp://afaps.com.au/gates/
p464
aVhttp://www.bobgatesphoto.com/
p465
aVhttp://pearlygatesbar.com/
p466
aVhttp://www.gccns.org/
p467
aVhttp://www.christopher-gates.com/
p468
aVhttp://www.theelectricgateshop.co.uk/
p469
aVhttps://www.fundinggates.com/
p470
aVhttp://www.king-gates.com/
p471
aVhttp://www.johnconnollybooks.com/novels-the-gates.php
p472
aVhttp://www.fencingandgate.com.au/
p473
aVhttp://www.cannockgates.co.uk/shop/cat/wooden-gates/
p474
aVhttp://www.tpdsteelworks.co.za/driveway-gates.html
p475
aVhttp://www.crossgatesclub.com/
p476
aVhttp://www.thegatesonroblin.com/
p477
aVhttp://www.gatewrights.co.uk/
p478
aVhttp://www.borrowdale-gates.com/
p479
aVhttp://whitecube.com/artists/theaster_gates/
p480
aVhttp://www.ardengates.co.uk/
p481
aVhttp://www.ornametals1.com/entrancedesign.html
p482
aVhttp://williamsinstitute.law.ucla.edu/gary-gates/
p483
aVhttp://www.noblepanels.com/
p484
aVhttp://www.mitchellwilliamslaw.com/allan-gates
p485
aVhttp://roverpet.com/
p486
aVhttp://runthegates.org/
p487
aVhttp://www.classicgates.co.nz/
p488
aVhttp://supremegates.co.za/
p489
aVhttp://www.wsj.com/articles/SB124061372413054653
p490
aVhttp://commons.wikimedia.org/wiki/Robert_Gates
p491
aVhttp://grolliron.com/
p492
aVhttp://www.smith.edu/news/
p493
aVhttp://www.fencecorp.com.au/gates.php
p494
aVhttp://www.radiogates.com/
p495
aVhttp://www.gatesbydon.com.au/
p496
aVhttp://www.qualitygatesireland.com/
p497
aVhttp://www.lyricsmode.com/lyrics/a/at_the_gates/
p498
aVhttp://portcullisgates.co.uk/
p499
aVhttp://www.rolfgates.com/pages/home.html
p500
aVhttp://www.rolfgates.com/pages/home.html
p501
aVhttp://mumbleselectricgates.com/
p502
aVhttp://www.sun-power.com/
p503
aVhttp://www.easygates.co.uk/
p504
aVhttp://www.timbergardengates.co.uk/
p505
aVhttp://www.gates.net.au/
p506
aVhttp://www.staffordgates.co.uk/
p507
aVhttp://www.gardengatesdirect.co.uk/
p508
aVhttp://www.remotecontrolgates.co.uk/
p509
aVhttp://www.pacefunders.org/bio_cgates.html
p510
aVhttp://www.gatesrus.com.au/
p511
aVhttp://www.tonygates.com/
p512
aVhttp://www.gatesit.org/
p513
aVhttp://www.alldayfencing.com.au/adfgates.php
p514
aVhttp://www.churchgates.com/
p515
aVhttp://7-gates.com/
p516
aVhttp://www.michaelyon-online.com/gates-of-fire.htm
p517
aVhttp://www.hamptongates.co.nz/
p518
aVhttp://www.domaingates.com.au/
p519
aVhttp://officialgates.com/
p520
aVhttp://www.bradengates.com/
p521
aVhttp://www.artisticgates.com.au/
p522
aVhttp://www.affordabledoorsandgates.com/
p523
aVhttp://www.gatesoffreedom.org/
p524
aVhttp://www.jacksons-fencing.co.uk/metal-gates.aspx
p525
aVhttp://www.gardenoasis.co.uk/gates-railings-c-111.html
p526
aVhttp://www.autogates.co.za/
p527
aVhttp://www.greengatesevents.com/
p528
aVhttp://timbergates.co.uk/
p529
aVhttp://www.clintongates.co.uk/
p530
aVhttp://mollygates.com/
p531
aVhttp://www.turongates.com/
p532
aVhttp://www.hbhwoodengates.co.uk/
p533
aVhttp://www.gateoptions.com/
p534
aVhttp://www.gate.com.au/
p535
aVhttp://www.gatesplus.com.au/
p536
aVhttp://www.residentialgates.com.au/
p537
aVhttp://www.betweenthegates.com/
p538
aVhttp://www.gatespower.ca/
p539
aVhttp://www.citygateschurch.net/
p540
aVhttp://www.gatesfortrucks.com.au/
p541
aVhttp://www.lancashiregates.co.uk/
p542
aVhttp://www.gates.com.mx/
p543
aVhttp://heavens-gates.com/
p544
aVhttp://www.gatesnrailings-barry.co.uk/
p545
aVhttp://www.attorneygates.com/
p546
aVhttp://www.mcmillanfencesandgates.co.nz/
p547
aVhttp://www.whrea.com/
p548
aVhttp://www.gatesnurseries.co.uk/
p549
aVhttp://newsok.com/article/5449225
p550
aVhttp://newsok.com/article/5449225
p551
aVhttp://www.gateshuntsville.com/
p552
aVhttp://www.ksl.com/?nid=235&sid=36721014&title=bill-gates-and-un-say-malaria-could-be-eradicated-by-2040
p553
aVhttp://nh.craigslist.org/grd/5243963134.html
p554
aVhttp://gatestozion.net/
p555
aVhttp://www.spokeo.com/Sandra-Gates
p556
aVhttp://gatessandiego.com/
p557
aVhttp://espn.go.com/video/clip?id=13733439
p558
aVhttp://www.geekwire.com/2015/bill-gates-speaks-at-u-s-china-event-in-seattle-praises-clean-energy-partnership-for-terrapower/
p559
aVhttp://wn.com/The_Gates_(TV_series)
p560
aVhttp://www.spokeo.com/Christopher-Gates
p561
aVhttp://margygatesart.com/
p562
aVhttp://www.spokeo.com/Gregory-Gates
p563
aVhttp://12gates.org/
p564
aVhttp://glencargates.com/
p565
aVhttps://groups.google.com/d/topic/sci.misc/tCUfe5QHX_4
p566
aVhttp://www.gates4limerick.com/
p567
aVhttp://www.theworldoftomgates.com/
p568
aVhttp://www.zillow.com/homedetails/7020-Gates-Rd-Gates-Mills-OH-44040/58556463_zpid/
p569
aVhttp://www.elcajongates.com/
p570
aVhttp://elpaso.craigslist.org/grd/5243208903.html
p571
aVhttp://www.peoplefinders.com/name/charles+gates/1-1084486364
p572
aVhttp://northridgegates.com/
p573
aVhttp://www.huffingtonpost.com/matthew-gates/
p574
aVhttps://docs.gatesfoundation.org/documents/bmgf-activity.xml
p575
aVhttp://12gatesbrewing.com/
p576
aVhttp://williamsinstitute.law.ucla.edu/wp-content/uploads/Gates-CV-current.pdf
p577
aVhttp://www.frontierpitts.com/products/gates/bespoke-gates/
p578
aVhttp://www.enterhisgatesok.com/
p579
aVhttp://ultimategates.com.au/
p580
aVhttp://www.hydrogate.com/products/literature/Radial Gates.pdf
p581
aVhttp://www.hellsgates.com/mainsite/
p582
aVhttp://proxy.dreamvpn.us/index.php?q=aHR0cDovL3duLmNvbS9HYXRlcw%3D%3D
p583
aVhttp://quantumsecuritygates.com/
p584
aVhttp://www.cmu.edu/computing/clusters/facilities/hours-gates.html
p585
aVhttp://www.audiomack.com/search?q=Kevin+Gates&page=3
p586
aVhttp://www.christopherthomasgates.com/
p587
aVhttp://www.falconrailing.com/glass-gates/
p588
aVhttp://www.buymixtapes.com/Kevin-Gates-Gold.17079.mixtape
p589
aVhttp://kscdirect.com/search_results.php?q=Gates%252BMegaCrimp%2520GATES%2520CORPORATION&a[Thread%20Size]=M14X1.5
p590
aVhttp://www.thetechgame.com/K_Gates
p591
aVhttp://www.minecraftskins.com/search/skin/bill-gates/1/
p592
aVhttps://leetcode.com/accounts/login/?next=/problems/walls-and-gates/
p593
aVhttp://www.henrigates.com/
p594
aVhttp://www.slpa.lk/Gates/update27.asp
p595
aVhttp://www.minecraftskins.com/search/skin/bill-gates/1/
p596
aVhttps://leetcode.com/accounts/login/?next=/problems/walls-and-gates/
p597
aVhttp://www.henrigates.com/
p598
aVhttp://www.slpa.lk/Gates/update27.asp
p599
aVhttp://www.minecraftskins.com/search/skin/bill-gates/1/
p600
aVhttps://leetcode.com/accounts/login/?next=/problems/walls-and-gates/
p601
aVhttp://www.henrigates.com/
p602
aVhttp://www.slpa.lk/Gates/update27.asp
p603
aVhttp://www.minecraftskins.com/search/skin/bill-gates/1/
p604
aVhttps://leetcode.com/accounts/login/?next=/problems/walls-and-gates/
p605
aVhttp://www.henrigates.com/
p606
aVhttp://www.slpa.lk/Gates/update27.asp
p607
aVhttp://www.minecraftskins.com/search/skin/bill-gates/1/
p608
aVhttps://leetcode.com/accounts/login/?next=/problems/walls-and-gates/
p609
aVhttp://www.henrigates.com/
p610
aVhttp://www.slpa.lk/Gates/update27.asp
p611
aVhttp://www.minecraftskins.com/search/skin/bill-gates/1/
p612
aVhttps://leetcode.com/accounts/login/?next=/problems/walls-and-gates/
p613
aVhttp://www.henrigates.com/
p614
aVhttp://www.slpa.lk/Gates/update27.asp
p615
aVhttp://www.minecraftskins.com/search/skin/bill-gates/1/
p616
aVhttps://leetcode.com/accounts/login/?next=/problems/walls-and-gates/
p617
aVhttp://www.henrigates.com/
p618
aVhttp://www.slpa.lk/Gates/update27.asp
p619
aVhttp://www.minecraftskins.com/search/skin/bill-gates/1/
p620
aVhttps://leetcode.com/accounts/login/?next=/problems/walls-and-gates/
p621
aVhttp://www.henrigates.com/
p622
aVhttp://www.slpa.lk/Gates/update27.asp
p623
aVhttp://www.minecraftskins.com/search/skin/bill-gates/1/
p624
aVhttps://leetcode.com/accounts/login/?next=/problems/walls-and-gates/
p625
aVhttp://www.henrigates.com/
p626
aVhttp://www.slpa.lk/Gates/update27.asp
p627
aVhttp://www.minecraftskins.com/search/skin/bill-gates/1/
p628
aVhttps://leetcode.com/accounts/login/?next=/problems/walls-and-gates/
p629
aVhttp://www.henrigates.com/
p630
aVhttp://www.slpa.lk/Gates/update27.asp
p631
a.